; Function Attrs: mustprogress uwtable
define internal fastcc void @"_ZSt17__merge_sort_loopIPPN4pkpy8PyObjectES3_lN9__gnu_cxx5__ops15_Iter_comp_iterIZZNS0_15__init_builtinsEPNS0_2VMEENK5$_110clES8_NS0_8ArgsViewEEUlS2_S2_E_EEEvT_SD_T0_T1_T2_"(ptr noundef %0, ptr noundef %1, ptr nocapture noundef writeonly %2, i64 noundef %3, ptr %4) unnamed_addr #4 {
  %6 = shl nsw i64 %3, 1
  %7 = ptrtoint ptr %1 to i64
  %8 = ptrtoint ptr %0 to i64
  %9 = sub i64 %7, %8
  %10 = ashr exact i64 %9, 3
  %.not50 = icmp slt i64 %10, %6
  %.not46 = icmp eq i64 %3, 0
  %or.cond = or i1 %.not50, %.not46
  br i1 %or.cond, label %._crit_edge, label %.lr.ph.i.preheader

.lr.ph.i.preheader:                               ; preds = %5, %"_ZSt12__move_mergeIPPN4pkpy8PyObjectES3_N9__gnu_cxx5__ops15_Iter_comp_iterIZZNS0_15__init_builtinsEPNS0_2VMEENK5$_110clES8_NS0_8ArgsViewEEUlS2_S2_E_EEET0_T_SE_SE_SE_SD_T1_.exit"
  %.052 = phi ptr [ %12, %"_ZSt12__move_mergeIPPN4pkpy8PyObjectES3_N9__gnu_cxx5__ops15_Iter_comp_iterIZZNS0_15__init_builtinsEPNS0_2VMEENK5$_110clES8_NS0_8ArgsViewEEUlS2_S2_E_EEET0_T_SE_SE_SE_SD_T1_.exit" ], [ %0, %5 ]
  %.01951 = phi ptr [ %27, %"_ZSt12__move_mergeIPPN4pkpy8PyObjectES3_N9__gnu_cxx5__ops15_Iter_comp_iterIZZNS0_15__init_builtinsEPNS0_2VMEENK5$_110clES8_NS0_8ArgsViewEEUlS2_S2_E_EEET0_T_SE_SE_SE_SD_T1_.exit" ], [ %2, %5 ]
  %11 = getelementptr inbounds ptr, ptr %.052, i64 %3
  %12 = getelementptr inbounds ptr, ptr %.052, i64 %6
  br label %.lr.ph.i

.lr.ph.i:                                         ; preds = %.lr.ph.i.preheader, %.lr.ph.i
  %.025.i = phi ptr [ %14, %.lr.ph.i ], [ %.01951, %.lr.ph.i.preheader ]
  %.01824.i = phi ptr [ %.1.i, %.lr.ph.i ], [ %.052, %.lr.ph.i.preheader ]
  %.01923.i = phi ptr [ %.120.i, %.lr.ph.i ], [ %11, %.lr.ph.i.preheader ]
  %.019.val.i = load ptr, ptr %.01923.i, align 8
  %.018.val.i = load ptr, ptr %.01824.i, align 8
  %13 = tail call noundef zeroext i1 @_ZN4pkpy2VM5py_ltEPNS_8PyObjectES2_(ptr noundef nonnull align 8 dereferenceable(264913) %4, ptr noundef %.019.val.i, ptr noundef %.018.val.i)
  %.sink.in.i = select i1 %13, ptr %.01923.i, ptr %.01824.i
  %.120.idx.i = select i1 %13, i64 8, i64 0
  %.120.i = getelementptr inbounds i8, ptr %.01923.i, i64 %.120.idx.i
  %.1.idx.i = select i1 %13, i64 0, i64 8
  %.1.i = getelementptr inbounds i8, ptr %.01824.i, i64 %.1.idx.i
  %.sink.i = load ptr, ptr %.sink.in.i, align 8
  store ptr %.sink.i, ptr %.025.i, align 8
  %14 = getelementptr inbounds i8, ptr %.025.i, i64 8
  %15 = icmp ne ptr %.1.i, %11
  %16 = icmp ne ptr %.120.i, %12
  %17 = select i1 %15, i1 %16, i1 false
  br i1 %17, label %.lr.ph.i, label %._crit_edge.i.loopexit, !llvm.loop !110

._crit_edge.i.loopexit:                           ; preds = %.lr.ph.i
  %18 = ptrtoint ptr %11 to i64
  %19 = ptrtoint ptr %.1.i to i64
  %20 = sub i64 %18, %19
  %.not.i.i.i.i.i.i = icmp eq ptr %.1.i, %11
  br i1 %.not.i.i.i.i.i.i, label %_ZSt4moveIPPN4pkpy8PyObjectES3_ET0_T_S5_S4_.exit.i, label %21

21:                                               ; preds = %._crit_edge.i.loopexit
  tail call void @llvm.memmove.p0.p0.i64(ptr nonnull align 8 %14, ptr nonnull align 8 %.1.i, i64 %20, i1 false)
  br label %_ZSt4moveIPPN4pkpy8PyObjectES3_ET0_T_S5_S4_.exit.i

_ZSt4moveIPPN4pkpy8PyObjectES3_ET0_T_S5_S4_.exit.i: ; preds = %21, %._crit_edge.i.loopexit
  %22 = getelementptr inbounds i8, ptr %14, i64 %20
  %23 = ptrtoint ptr %12 to i64
  %24 = ptrtoint ptr %.120.i to i64
  %25 = sub i64 %23, %24
  %.not.i.i.i.i.i21.i = icmp eq ptr %.120.i, %12
  br i1 %.not.i.i.i.i.i21.i, label %"_ZSt12__move_mergeIPPN4pkpy8PyObjectES3_N9__gnu_cxx5__ops15_Iter_comp_iterIZZNS0_15__init_builtinsEPNS0_2VMEENK5$_110clES8_NS0_8ArgsViewEEUlS2_S2_E_EEET0_T_SE_SE_SE_SD_T1_.exit", label %26

26:                                               ; preds = %_ZSt4moveIPPN4pkpy8PyObjectES3_ET0_T_S5_S4_.exit.i
  tail call void @llvm.memmove.p0.p0.i64(ptr nonnull align 8 %22, ptr nonnull align 8 %.120.i, i64 %25, i1 false)
  br label %"_ZSt12__move_mergeIPPN4pkpy8PyObjectES3_N9__gnu_cxx5__ops15_Iter_comp_iterIZZNS0_15__init_builtinsEPNS0_2VMEENK5$_110clES8_NS0_8ArgsViewEEUlS2_S2_E_EEET0_T_SE_SE_SE_SD_T1_.exit"

"_ZSt12__move_mergeIPPN4pkpy8PyObjectES3_N9__gnu_cxx5__ops15_Iter_comp_iterIZZNS0_15__init_builtinsEPNS0_2VMEENK5$_110clES8_NS0_8ArgsViewEEUlS2_S2_E_EEET0_T_SE_SE_SE_SD_T1_.exit": ; preds = %_ZSt4moveIPPN4pkpy8PyObjectES3_ET0_T_S5_S4_.exit.i, %26
  %27 = getelementptr inbounds i8, ptr %22, i64 %25
  %28 = sub i64 %7, %23
  %29 = ashr exact i64 %28, 3
  %.not = icmp slt i64 %29, %6
  br i1 %.not, label %._crit_edge, label %.lr.ph.i.preheader, !llvm.loop !111

._crit_edge:                                      ; preds = %"_ZSt12__move_mergeIPPN4pkpy8PyObjectES3_N9__gnu_cxx5__ops15_Iter_comp_iterIZZNS0_15__init_builtinsEPNS0_2VMEENK5$_110clES8_NS0_8ArgsViewEEUlS2_S2_E_EEET0_T_SE_SE_SE_SD_T1_.exit", %5
  %.019.lcssa = phi ptr [ %2, %5 ], [ %27, %"_ZSt12__move_mergeIPPN4pkpy8PyObjectES3_N9__gnu_cxx5__ops15_Iter_comp_iterIZZNS0_15__init_builtinsEPNS0_2VMEENK5$_110clES8_NS0_8ArgsViewEEUlS2_S2_E_EEET0_T_SE_SE_SE_SD_T1_.exit" ]
  %.0.lcssa = phi ptr [ %0, %5 ], [ %12, %"_ZSt12__move_mergeIPPN4pkpy8PyObjectES3_N9__gnu_cxx5__ops15_Iter_comp_iterIZZNS0_15__init_builtinsEPNS0_2VMEENK5$_110clES8_NS0_8ArgsViewEEUlS2_S2_E_EEET0_T_SE_SE_SE_SD_T1_.exit" ]
  %.lcssa48 = phi i64 [ %10, %5 ], [ %29, %"_ZSt12__move_mergeIPPN4pkpy8PyObjectES3_N9__gnu_cxx5__ops15_Iter_comp_iterIZZNS0_15__init_builtinsEPNS0_2VMEENK5$_110clES8_NS0_8ArgsViewEEUlS2_S2_E_EEET0_T_SE_SE_SE_SD_T1_.exit" ]
  %.sroa.speculated = tail call i64 @llvm.smin.i64(i64 %.lcssa48, i64 %3)
  %30 = getelementptr inbounds ptr, ptr %.0.lcssa, i64 %.sroa.speculated
  %31 = icmp ne i64 %.sroa.speculated, 0
  %32 = icmp ne ptr %30, %1
  %33 = and i1 %31, %32
  br i1 %33, label %.lr.ph.i29, label %._crit_edge.i22

.lr.ph.i29:                                       ; preds = %._crit_edge, %.lr.ph.i29
  %.025.i30 = phi ptr [ %35, %.lr.ph.i29 ], [ %.019.lcssa, %._crit_edge ]
  %.01824.i31 = phi ptr [ %.1.i39, %.lr.ph.i29 ], [ %.0.lcssa, %._crit_edge ]
  %.01923.i32 = phi ptr [ %.120.i37, %.lr.ph.i29 ], [ %30, %._crit_edge ]
  %.019.val.i33 = load ptr, ptr %.01923.i32, align 8
  %.018.val.i34 = load ptr, ptr %.01824.i31, align 8
  %34 = tail call noundef zeroext i1 @_ZN4pkpy2VM5py_ltEPNS_8PyObjectES2_(ptr noundef nonnull align 8 dereferenceable(264913) %4, ptr noundef %.019.val.i33, ptr noundef %.018.val.i34)
  %.sink.in.i35 = select i1 %34, ptr %.01923.i32, ptr %.01824.i31
  %.120.idx.i36 = select i1 %34, i64 8, i64 0
  %.120.i37 = getelementptr inbounds i8, ptr %.01923.i32, i64 %.120.idx.i36
  %.1.idx.i38 = select i1 %34, i64 0, i64 8
  %.1.i39 = getelementptr inbounds i8, ptr %.01824.i31, i64 %.1.idx.i38
  %.sink.i40 = load ptr, ptr %.sink.in.i35, align 8
  store ptr %.sink.i40, ptr %.025.i30, align 8
  %35 = getelementptr inbounds i8, ptr %.025.i30, i64 8
  %36 = icmp ne ptr %.1.i39, %30
  %37 = icmp ne ptr %.120.i37, %1
  %38 = select i1 %36, i1 %37, i1 false
  br i1 %38, label %.lr.ph.i29, label %._crit_edge.i22, !llvm.loop !110

._crit_edge.i22:                                  ; preds = %.lr.ph.i29, %._crit_edge
  %.019.lcssa.i23 = phi ptr [ %30, %._crit_edge ], [ %.120.i37, %.lr.ph.i29 ]
  %.018.lcssa.i24 = phi ptr [ %.0.lcssa, %._crit_edge ], [ %.1.i39, %.lr.ph.i29 ]
  %.0.lcssa.i25 = phi ptr [ %.019.lcssa, %._crit_edge ], [ %35, %.lr.ph.i29 ]
  %39 = ptrtoint ptr %30 to i64
  %40 = ptrtoint ptr %.018.lcssa.i24 to i64
  %41 = sub i64 %39, %40
  %.not.i.i.i.i.i.i26 = icmp eq ptr %.018.lcssa.i24, %30
  br i1 %.not.i.i.i.i.i.i26, label %_ZSt4moveIPPN4pkpy8PyObjectES3_ET0_T_S5_S4_.exit.i27, label %42

42:                                               ; preds = %._crit_edge.i22
  tail call void @llvm.memmove.p0.p0.i64(ptr align 8 %.0.lcssa.i25, ptr align 8 %.018.lcssa.i24, i64 %41, i1 false)
  br label %_ZSt4moveIPPN4pkpy8PyObjectES3_ET0_T_S5_S4_.exit.i27

_ZSt4moveIPPN4pkpy8PyObjectES3_ET0_T_S5_S4_.exit.i27: ; preds = %42, %._crit_edge.i22
  %.not.i.i.i.i.i21.i28 = icmp eq ptr %.019.lcssa.i23, %1
  br i1 %.not.i.i.i.i.i21.i28, label %"_ZSt12__move_mergeIPPN4pkpy8PyObjectES3_N9__gnu_cxx5__ops15_Iter_comp_iterIZZNS0_15__init_builtinsEPNS0_2VMEENK5$_110clES8_NS0_8ArgsViewEEUlS2_S2_E_EEET0_T_SE_SE_SE_SD_T1_.exit41", label %43

43:                                               ; preds = %_ZSt4moveIPPN4pkpy8PyObjectES3_ET0_T_S5_S4_.exit.i27
  %44 = ptrtoint ptr %.019.lcssa.i23 to i64
  %45 = sub i64 %7, %44
  %46 = getelementptr inbounds i8, ptr %.0.lcssa.i25, i64 %41
  tail call void @llvm.memmove.p0.p0.i64(ptr align 8 %46, ptr align 8 %.019.lcssa.i23, i64 %45, i1 false)
  br label %"_ZSt12__move_mergeIPPN4pkpy8PyObjectES3_N9__gnu_cxx5__ops15_Iter_comp_iterIZZNS0_15__init_builtinsEPNS0_2VMEENK5$_110clES8_NS0_8ArgsViewEEUlS2_S2_E_EEET0_T_SE_SE_SE_SD_T1_.exit41"

"_ZSt12__move_mergeIPPN4pkpy8PyObjectES3_N9__gnu_cxx5__ops15_Iter_comp_iterIZZNS0_15__init_builtinsEPNS0_2VMEENK5$_110clES8_NS0_8ArgsViewEEUlS2_S2_E_EEET0_T_SE_SE_SE_SD_T1_.exit41": ; preds = %_ZSt4moveIPPN4pkpy8PyObjectES3_ET0_T_S5_S4_.exit.i27, %43
  ret void
}